target datalayout = "e-m:e-p270:32:32-p271:32:32-p272:64:64-i64:64-i128:128-f80:128-n8:16:32:64-S128"
target triple = "x86_64-pc-linux-gnu"

; Function Attrs: nounwind uwtable
define internal void @lsp2polyf(ptr noundef %0, ptr noundef %1, i32 noundef %2) #0 {
  %4 = alloca ptr, align 8
  %5 = alloca ptr, align 8
  %6 = alloca i32, align 4
  %7 = alloca i32, align 4
  %8 = alloca i32, align 4
  %9 = alloca double, align 8
  %10 = alloca i32, align 4
  store ptr %0, ptr %4, align 8, !tbaa !26
  store ptr %1, ptr %5, align 8, !tbaa !26
  store i32 %2, ptr %6, align 4, !tbaa !9
  %11 = load ptr, ptr %5, align 8, !tbaa !26
  %12 = getelementptr inbounds double, ptr %11, i64 0
  store double 1.000000e+00, ptr %12, align 8, !tbaa !19
  %13 = load ptr, ptr %4, align 8, !tbaa !26
  %14 = getelementptr inbounds double, ptr %13, i64 0
  %15 = load double, ptr %14, align 8, !tbaa !19
  %16 = fmul nsz double -2.000000e+00, %15
  %17 = load ptr, ptr %5, align 8, !tbaa !26
  %18 = getelementptr inbounds double, ptr %17, i64 1
  store double %16, ptr %18, align 8, !tbaa !19
  %19 = load ptr, ptr %4, align 8, !tbaa !26
  %20 = getelementptr inbounds double, ptr %19, i64 -2
  store ptr %20, ptr %4, align 8, !tbaa !26
  call void @llvm.lifetime.start.p0(i64 4, ptr %7) #3
  store i32 2, ptr %7, align 4, !tbaa !9
  br label %21

21:                                               ; preds = %89, %3
  %22 = load i32, ptr %7, align 4, !tbaa !9
  %23 = load i32, ptr %6, align 4, !tbaa !9
  %24 = icmp sle i32 %22, %23
  br i1 %24, label %26, label %25

25:                                               ; preds = %21
  store i32 2, ptr %8, align 4
  call void @llvm.lifetime.end.p0(i64 4, ptr %7) #3
  br label %92

26:                                               ; preds = %21
  call void @llvm.lifetime.start.p0(i64 8, ptr %9) #3
  %27 = load ptr, ptr %4, align 8, !tbaa !26
  %28 = load i32, ptr %7, align 4, !tbaa !9
  %29 = mul nsw i32 2, %28
  %30 = sext i32 %29 to i64
  %31 = getelementptr inbounds double, ptr %27, i64 %30
  %32 = load double, ptr %31, align 8, !tbaa !19
  %33 = fmul nsz double -2.000000e+00, %32
  store double %33, ptr %9, align 8, !tbaa !19
  %34 = load double, ptr %9, align 8, !tbaa !19
  %35 = load ptr, ptr %5, align 8, !tbaa !26
  %36 = load i32, ptr %7, align 4, !tbaa !9
  %37 = sub nsw i32 %36, 1
  %38 = sext i32 %37 to i64
  %39 = getelementptr inbounds double, ptr %35, i64 %38
  %40 = load double, ptr %39, align 8, !tbaa !19
  %41 = load ptr, ptr %5, align 8, !tbaa !26
  %42 = load i32, ptr %7, align 4, !tbaa !9
  %43 = sub nsw i32 %42, 2
  %44 = sext i32 %43 to i64
  %45 = getelementptr inbounds double, ptr %41, i64 %44
  %46 = load double, ptr %45, align 8, !tbaa !19
  %47 = fmul nsz double 2.000000e+00, %46
  %48 = call nsz double @llvm.fmuladd.f64(double %34, double %40, double %47)
  %49 = load ptr, ptr %5, align 8, !tbaa !26
  %50 = load i32, ptr %7, align 4, !tbaa !9
  %51 = sext i32 %50 to i64
  %52 = getelementptr inbounds double, ptr %49, i64 %51
  store double %48, ptr %52, align 8, !tbaa !19
  call void @llvm.lifetime.start.p0(i64 4, ptr %10) #3
  %53 = load i32, ptr %7, align 4, !tbaa !9
  %54 = sub nsw i32 %53, 1
  store i32 %54, ptr %10, align 4, !tbaa !9
  br label %55

55:                                               ; preds = %80, %26
  %56 = load i32, ptr %10, align 4, !tbaa !9
  %57 = icmp sgt i32 %56, 1
  br i1 %57, label %59, label %58

58:                                               ; preds = %55
  store i32 5, ptr %8, align 4
  call void @llvm.lifetime.end.p0(i64 4, ptr %10) #3
  br label %83

59:                                               ; preds = %55
  %60 = load ptr, ptr %5, align 8, !tbaa !26
  %61 = load i32, ptr %10, align 4, !tbaa !9
  %62 = sub nsw i32 %61, 1
  %63 = sext i32 %62 to i64
  %64 = getelementptr inbounds double, ptr %60, i64 %63
  %65 = load double, ptr %64, align 8, !tbaa !19
  %66 = load double, ptr %9, align 8, !tbaa !19
  %67 = load ptr, ptr %5, align 8, !tbaa !26
  %68 = load i32, ptr %10, align 4, !tbaa !9
  %69 = sub nsw i32 %68, 2
  %70 = sext i32 %69 to i64
  %71 = getelementptr inbounds double, ptr %67, i64 %70
  %72 = load double, ptr %71, align 8, !tbaa !19
  %73 = call nsz double @llvm.fmuladd.f64(double %65, double %66, double %72)
  %74 = load ptr, ptr %5, align 8, !tbaa !26
  %75 = load i32, ptr %10, align 4, !tbaa !9
  %76 = sext i32 %75 to i64
  %77 = getelementptr inbounds double, ptr %74, i64 %76
  %78 = load double, ptr %77, align 8, !tbaa !19
  %79 = fadd nsz double %78, %73
  store double %79, ptr %77, align 8, !tbaa !19
  br label %80

80:                                               ; preds = %59
  %81 = load i32, ptr %10, align 4, !tbaa !9
  %82 = add nsw i32 %81, -1
  store i32 %82, ptr %10, align 4, !tbaa !9
  br label %55, !llvm.loop !30

83:                                               ; preds = %58
  %84 = load double, ptr %9, align 8, !tbaa !19
  %85 = load ptr, ptr %5, align 8, !tbaa !26
  %86 = getelementptr inbounds double, ptr %85, i64 1
  %87 = load double, ptr %86, align 8, !tbaa !19
  %88 = fadd nsz double %87, %84
  store double %88, ptr %86, align 8, !tbaa !19
  call void @llvm.lifetime.end.p0(i64 8, ptr %9) #3
  br label %89

89:                                               ; preds = %83
  %90 = load i32, ptr %7, align 4, !tbaa !9
  %91 = add nsw i32 %90, 1
  store i32 %91, ptr %7, align 4, !tbaa !9
  br label %21, !llvm.loop !31

92:                                               ; preds = %25
  ret void
}

; Function Attrs: nounwind uwtable
define void @ff_amrwb_lsp2lpc(ptr noundef %0, ptr noundef %1, i32 noundef %2) #0 {
  %4 = alloca ptr, align 8
  %5 = alloca ptr, align 8
  %6 = alloca i32, align 4
  %7 = alloca i32, align 4
  %8 = alloca [11 x double], align 16
  %9 = alloca [11 x double], align 16
  %10 = alloca ptr, align 8
  %11 = alloca i32, align 4
  %12 = alloca i32, align 4
  %13 = alloca double, align 8
  %14 = alloca double, align 8
  store ptr %0, ptr %4, align 8, !tbaa !26
  store ptr %1, ptr %5, align 8, !tbaa !17
  store i32 %2, ptr %6, align 4, !tbaa !9
  call void @llvm.lifetime.start.p0(i64 4, ptr %7) #3
  %15 = load i32, ptr %6, align 4, !tbaa !9
  %16 = ashr i32 %15, 1
  store i32 %16, ptr %7, align 4, !tbaa !9
  call void @llvm.lifetime.start.p0(i64 88, ptr %8) #3
  call void @llvm.lifetime.start.p0(i64 88, ptr %9) #3
  call void @llvm.lifetime.start.p0(i64 8, ptr %10) #3
  %17 = getelementptr inbounds [11 x double], ptr %8, i64 0, i64 0
  %18 = getelementptr inbounds double, ptr %17, i64 1
  store ptr %18, ptr %10, align 8, !tbaa !26
  call void @llvm.lifetime.start.p0(i64 4, ptr %11) #3
  call void @llvm.lifetime.start.p0(i64 4, ptr %12) #3
  %19 = load ptr, ptr %10, align 8, !tbaa !26
  %20 = getelementptr inbounds double, ptr %19, i64 -1
  store double 0.000000e+00, ptr %20, align 8, !tbaa !19
  %21 = load ptr, ptr %4, align 8, !tbaa !26
  %22 = getelementptr inbounds [11 x double], ptr %9, i64 0, i64 0
  %23 = load i32, ptr %7, align 4, !tbaa !9
  call void @lsp2polyf(ptr noundef %21, ptr noundef %22, i32 noundef %23)
  %24 = load ptr, ptr %4, align 8, !tbaa !26
  %25 = getelementptr inbounds double, ptr %24, i64 1
  %26 = load ptr, ptr %10, align 8, !tbaa !26
  %27 = load i32, ptr %7, align 4, !tbaa !9
  %28 = sub nsw i32 %27, 1
  call void @lsp2polyf(ptr noundef %25, ptr noundef %26, i32 noundef %28)
  store i32 1, ptr %11, align 4, !tbaa !9
  %29 = load i32, ptr %6, align 4, !tbaa !9
  %30 = sub nsw i32 %29, 1
  store i32 %30, ptr %12, align 4, !tbaa !9
  br label %31

31:                                               ; preds = %88, %3
  %32 = load i32, ptr %11, align 4, !tbaa !9
  %33 = load i32, ptr %7, align 4, !tbaa !9
  %34 = icmp slt i32 %32, %33
  br i1 %34, label %35, label %93

35:                                               ; preds = %31
  call void @llvm.lifetime.start.p0(i64 8, ptr %13) #3
  %36 = load i32, ptr %11, align 4, !tbaa !9
  %37 = sext i32 %36 to i64
  %38 = getelementptr inbounds [11 x double], ptr %9, i64 0, i64 %37
  %39 = load double, ptr %38, align 8, !tbaa !19
  %40 = load ptr, ptr %4, align 8, !tbaa !26
  %41 = load i32, ptr %6, align 4, !tbaa !9
  %42 = sub nsw i32 %41, 1
  %43 = sext i32 %42 to i64
  %44 = getelementptr inbounds double, ptr %40, i64 %43
  %45 = load double, ptr %44, align 8, !tbaa !19
  %46 = fadd nsz double 1.000000e+00, %45
  %47 = fmul nsz double %39, %46
  store double %47, ptr %13, align 8, !tbaa !19
  call void @llvm.lifetime.start.p0(i64 8, ptr %14) #3
  %48 = load ptr, ptr %10, align 8, !tbaa !26
  %49 = load i32, ptr %11, align 4, !tbaa !9
  %50 = sext i32 %49 to i64
  %51 = getelementptr inbounds double, ptr %48, i64 %50
  %52 = load double, ptr %51, align 8, !tbaa !19
  %53 = load ptr, ptr %10, align 8, !tbaa !26
  %54 = load i32, ptr %11, align 4, !tbaa !9
  %55 = sub nsw i32 %54, 2
  %56 = sext i32 %55 to i64
  %57 = getelementptr inbounds double, ptr %53, i64 %56
  %58 = load double, ptr %57, align 8, !tbaa !19
  %59 = fsub nsz double %52, %58
  %60 = load ptr, ptr %4, align 8, !tbaa !26
  %61 = load i32, ptr %6, align 4, !tbaa !9
  %62 = sub nsw i32 %61, 1
  %63 = sext i32 %62 to i64
  %64 = getelementptr inbounds double, ptr %60, i64 %63
  %65 = load double, ptr %64, align 8, !tbaa !19
  %66 = fsub nsz double 1.000000e+00, %65
  %67 = fmul nsz double %59, %66
  store double %67, ptr %14, align 8, !tbaa !19
  %68 = load double, ptr %13, align 8, !tbaa !19
  %69 = load double, ptr %14, align 8, !tbaa !19
  %70 = fadd nsz double %68, %69
  %71 = fmul nsz double %70, 5.000000e-01
  %72 = fptrunc nsz double %71 to float
  %73 = load ptr, ptr %5, align 8, !tbaa !17
  %74 = load i32, ptr %11, align 4, !tbaa !9
  %75 = sub nsw i32 %74, 1
  %76 = sext i32 %75 to i64
  %77 = getelementptr inbounds float, ptr %73, i64 %76
  store float %72, ptr %77, align 4, !tbaa !21
  %78 = load double, ptr %13, align 8, !tbaa !19
  %79 = load double, ptr %14, align 8, !tbaa !19
  %80 = fsub nsz double %78, %79
  %81 = fmul nsz double %80, 5.000000e-01
  %82 = fptrunc nsz double %81 to float
  %83 = load ptr, ptr %5, align 8, !tbaa !17
  %84 = load i32, ptr %12, align 4, !tbaa !9
  %85 = sub nsw i32 %84, 1
  %86 = sext i32 %85 to i64
  %87 = getelementptr inbounds float, ptr %83, i64 %86
  store float %82, ptr %87, align 4, !tbaa !21
  call void @llvm.lifetime.end.p0(i64 8, ptr %14) #3
  call void @llvm.lifetime.end.p0(i64 8, ptr %13) #3
  br label %88

88:                                               ; preds = %35
  %89 = load i32, ptr %11, align 4, !tbaa !9
  %90 = add nsw i32 %89, 1
  store i32 %90, ptr %11, align 4, !tbaa !9
  %91 = load i32, ptr %12, align 4, !tbaa !9
  %92 = add nsw i32 %91, -1
  store i32 %92, ptr %12, align 4, !tbaa !9
  br label %31, !llvm.loop !29

93:                                               ; preds = %31
  %94 = load ptr, ptr %4, align 8, !tbaa !26
  %95 = load i32, ptr %6, align 4, !tbaa !9
  %96 = sub nsw i32 %95, 1
  %97 = sext i32 %96 to i64
  %98 = getelementptr inbounds double, ptr %94, i64 %97
  %99 = load double, ptr %98, align 8, !tbaa !19
  %100 = fadd nsz double 1.000000e+00, %99
  %101 = load i32, ptr %7, align 4, !tbaa !9
  %102 = sext i32 %101 to i64
  %103 = getelementptr inbounds [11 x double], ptr %9, i64 0, i64 %102
  %104 = load double, ptr %103, align 8, !tbaa !19
  %105 = fmul nsz double %100, %104
  %106 = fmul nsz double %105, 5.000000e-01
  %107 = fptrunc nsz double %106 to float
  %108 = load ptr, ptr %5, align 8, !tbaa !17
  %109 = load i32, ptr %7, align 4, !tbaa !9
  %110 = sub nsw i32 %109, 1
  %111 = sext i32 %110 to i64
  %112 = getelementptr inbounds float, ptr %108, i64 %111
  store float %107, ptr %112, align 4, !tbaa !21
  %113 = load ptr, ptr %4, align 8, !tbaa !26
  %114 = load i32, ptr %6, align 4, !tbaa !9
  %115 = sub nsw i32 %114, 1
  %116 = sext i32 %115 to i64
  %117 = getelementptr inbounds double, ptr %113, i64 %116
  %118 = load double, ptr %117, align 8, !tbaa !19
  %119 = fptrunc nsz double %118 to float
  %120 = load ptr, ptr %5, align 8, !tbaa !17
  %121 = load i32, ptr %6, align 4, !tbaa !9
  %122 = sub nsw i32 %121, 1
  %123 = sext i32 %122 to i64
  %124 = getelementptr inbounds float, ptr %120, i64 %123
  store float %119, ptr %124, align 4, !tbaa !21
  call void @llvm.lifetime.end.p0(i64 4, ptr %12) #3
  call void @llvm.lifetime.end.p0(i64 4, ptr %11) #3
  call void @llvm.lifetime.end.p0(i64 8, ptr %10) #3
  call void @llvm.lifetime.end.p0(i64 88, ptr %9) #3
  call void @llvm.lifetime.end.p0(i64 88, ptr %8) #3
  call void @llvm.lifetime.end.p0(i64 4, ptr %7) #3
  ret void
}