; Function Attrs: nofree norecurse nosync nounwind memory(argmem: readwrite) uwtable
define void @ff_amrwb_lsp2lpc(ptr noundef readonly captures(none) %0, ptr noundef writeonly captures(none) %1, i32 noundef %2) local_unnamed_addr #0 {
  %4 = alloca [11 x double], align 16
  %5 = alloca [11 x double], align 16
  %6 = ashr i32 %2, 1
  call void @llvm.lifetime.start.p0(i64 88, ptr nonnull %4) #4
  call void @llvm.lifetime.start.p0(i64 88, ptr nonnull %5) #4
  %7 = getelementptr inbounds nuw i8, ptr %4, i64 8
  store double 0.000000e+00, ptr %4, align 16, !tbaa !16
  store double 1.000000e+00, ptr %5, align 16, !tbaa !16
  %8 = load double, ptr %0, align 8, !tbaa !16
  %9 = fmul nsz double %8, -2.000000e+00
  %10 = getelementptr inbounds nuw i8, ptr %5, i64 8
  store double %9, ptr %10, align 8, !tbaa !16
  %11 = getelementptr inbounds i8, ptr %0, i64 -16
  %.not29.i = icmp slt i32 %6, 2
  br i1 %.not29.i, label %lsp2polyf.exit55.._crit_edge_crit_edge, label %.lr.ph32.preheader.i

.lr.ph32.preheader.i:                             ; preds = %3
  %12 = add nuw nsw i32 %6, 1
  %wide.trip.count.i = zext nneg i32 %12 to i64
  %invariant.gep.i = getelementptr i8, ptr %5, i64 -8
  br label %.lr.ph32.i

.lr.ph32.i:                                       ; preds = %._crit_edge.i, %.lr.ph32.preheader.i
  %indvars.iv37.i = phi i64 [ 2, %.lr.ph32.preheader.i ], [ %indvars.iv.next38.i, %._crit_edge.i ]
  %indvars.iv.i = phi i64 [ 1, %.lr.ph32.preheader.i ], [ %indvars.iv.next.i, %._crit_edge.i ]
  %.idx.i = shl nuw nsw i64 %indvars.iv37.i, 4
  %13 = getelementptr inbounds nuw i8, ptr %11, i64 %.idx.i
  %14 = load double, ptr %13, align 8, !tbaa !16
  %15 = fmul nsz double %14, -2.000000e+00
  %gep.i = getelementptr double, ptr %invariant.gep.i, i64 %indvars.iv37.i
  %16 = load double, ptr %gep.i, align 8, !tbaa !16
  %17 = getelementptr double, ptr %5, i64 %indvars.iv37.i
  %18 = getelementptr i8, ptr %17, i64 -16
  %19 = load double, ptr %18, align 8, !tbaa !16
  %20 = fmul nsz double %19, 2.000000e+00
  %21 = tail call nsz double @llvm.fmuladd.f64(double %15, double %16, double %20)
  store double %21, ptr %17, align 8, !tbaa !16
  %22 = icmp samesign ugt i64 %indvars.iv37.i, 2
  br i1 %22, label %.lr.ph.i, label %._crit_edge.i

._crit_edge.i:                                    ; preds = %.lr.ph.i, %.lr.ph32.i
  %23 = load double, ptr %10, align 8, !tbaa !16
  %24 = fadd nsz double %15, %23
  store double %24, ptr %10, align 8, !tbaa !16
  %indvars.iv.next38.i = add nuw nsw i64 %indvars.iv37.i, 1
  %indvars.iv.next.i = add nuw nsw i64 %indvars.iv.i, 1
  %exitcond.not.i = icmp eq i64 %indvars.iv.next38.i, %wide.trip.count.i
  br i1 %exitcond.not.i, label %lsp2polyf.exit, label %.lr.ph32.i, !llvm.loop !19

.lr.ph.i:                                         ; preds = %.lr.ph32.i, %.lr.ph.i
  %indvars.iv34.i = phi i64 [ %indvars.iv.next35.i, %.lr.ph.i ], [ %indvars.iv.i, %.lr.ph32.i ]
  %25 = getelementptr double, ptr %5, i64 %indvars.iv34.i
  %26 = getelementptr i8, ptr %25, i64 -8
  %27 = load double, ptr %26, align 8, !tbaa !16
  %28 = getelementptr i8, ptr %25, i64 -16
  %29 = load double, ptr %28, align 8, !tbaa !16
  %30 = tail call nsz double @llvm.fmuladd.f64(double %27, double %15, double %29)
  %31 = load double, ptr %25, align 8, !tbaa !16
  %32 = fadd nsz double %31, %30
  store double %32, ptr %25, align 8, !tbaa !16
  %indvars.iv.next35.i = add nsw i64 %indvars.iv34.i, -1
  %33 = icmp sgt i64 %indvars.iv34.i, 2
  br i1 %33, label %.lr.ph.i, label %._crit_edge.i, !llvm.loop !20

lsp2polyf.exit:                                   ; preds = %._crit_edge.i
  %34 = getelementptr inbounds nuw i8, ptr %0, i64 8
  store double 1.000000e+00, ptr %7, align 8, !tbaa !16
  %35 = load double, ptr %34, align 8, !tbaa !16
  %36 = fmul nsz double %35, -2.000000e+00
  %37 = getelementptr inbounds nuw i8, ptr %4, i64 16
  store double %36, ptr %37, align 16, !tbaa !16
  %38 = getelementptr inbounds i8, ptr %0, i64 -8
  %.not29.i39 = icmp eq i32 %6, 2
  br i1 %.not29.i39, label %.lr.ph, label %.lr.ph32.preheader.i40

.lr.ph32.preheader.i40:                           ; preds = %lsp2polyf.exit
  %wide.trip.count.i41 = zext nneg i32 %6 to i64
  br label %.lr.ph32.i43

.lr.ph32.i43:                                     ; preds = %._crit_edge.i48, %.lr.ph32.preheader.i40
  %indvars.iv37.i44 = phi i64 [ 2, %.lr.ph32.preheader.i40 ], [ %indvars.iv.next38.i49, %._crit_edge.i48 ]
  %indvars.iv.i45 = phi i64 [ 1, %.lr.ph32.preheader.i40 ], [ %indvars.iv.next.i50, %._crit_edge.i48 ]
  %.idx.i46 = shl nuw nsw i64 %indvars.iv37.i44, 4
  %39 = getelementptr inbounds nuw i8, ptr %38, i64 %.idx.i46
  %40 = load double, ptr %39, align 8, !tbaa !16
  %41 = fmul nsz double %40, -2.000000e+00
  %gep.i47 = getelementptr double, ptr %4, i64 %indvars.iv37.i44
  %42 = load double, ptr %gep.i47, align 8, !tbaa !16
  %43 = getelementptr double, ptr %7, i64 %indvars.iv37.i44
  %44 = getelementptr i8, ptr %43, i64 -16
  %45 = load double, ptr %44, align 8, !tbaa !16
  %46 = fmul nsz double %45, 2.000000e+00
  %47 = tail call nsz double @llvm.fmuladd.f64(double %41, double %42, double %46)
  store double %47, ptr %43, align 8, !tbaa !16
  %48 = icmp samesign ugt i64 %indvars.iv37.i44, 2
  br i1 %48, label %.lr.ph.i52, label %._crit_edge.i48

._crit_edge.i48:                                  ; preds = %.lr.ph.i52, %.lr.ph32.i43
  %49 = load double, ptr %37, align 16, !tbaa !16
  %50 = fadd nsz double %41, %49
  store double %50, ptr %37, align 16, !tbaa !16
  %indvars.iv.next38.i49 = add nuw nsw i64 %indvars.iv37.i44, 1
  %indvars.iv.next.i50 = add nuw nsw i64 %indvars.iv.i45, 1
  %exitcond.not.i51 = icmp eq i64 %indvars.iv.next38.i49, %wide.trip.count.i41
  br i1 %exitcond.not.i51, label %.lr.ph, label %.lr.ph32.i43, !llvm.loop !19

.lr.ph.i52:                                       ; preds = %.lr.ph32.i43, %.lr.ph.i52
  %indvars.iv34.i53 = phi i64 [ %indvars.iv.next35.i54, %.lr.ph.i52 ], [ %indvars.iv.i45, %.lr.ph32.i43 ]
  %51 = getelementptr double, ptr %7, i64 %indvars.iv34.i53
  %52 = getelementptr i8, ptr %51, i64 -8
  %53 = load double, ptr %52, align 8, !tbaa !16
  %54 = getelementptr i8, ptr %51, i64 -16
  %55 = load double, ptr %54, align 8, !tbaa !16
  %56 = tail call nsz double @llvm.fmuladd.f64(double %53, double %41, double %55)
  %57 = load double, ptr %51, align 8, !tbaa !16
  %58 = fadd nsz double %57, %56
  store double %58, ptr %51, align 8, !tbaa !16
  %indvars.iv.next35.i54 = add nsw i64 %indvars.iv34.i53, -1
  %59 = icmp sgt i64 %indvars.iv34.i53, 2
  br i1 %59, label %.lr.ph.i52, label %._crit_edge.i48, !llvm.loop !20

lsp2polyf.exit55.._crit_edge_crit_edge:           ; preds = %3
  %60 = add i32 %2, -1
  %61 = sext i32 %60 to i64
  %.phi.trans.insert66 = getelementptr inbounds double, ptr %0, i64 %61
  %.pre = load double, ptr %.phi.trans.insert66, align 8, !tbaa !16
  %.pre67 = fadd nsz double %.pre, 1.000000e+00
  br label %._crit_edge

.lr.ph:                                           ; preds = %._crit_edge.i48, %lsp2polyf.exit
  %62 = add i32 %2, -1
  %invariant.gep70 = getelementptr i8, ptr %1, i64 -4
  %63 = sext i32 %62 to i64
  %64 = getelementptr inbounds double, ptr %0, i64 %63
  %65 = load double, ptr %64, align 8, !tbaa !16
  %66 = fadd nsz double %65, 1.000000e+00
  %67 = fsub nsz double 1.000000e+00, %65
  %wide.trip.count = zext nneg i32 %6 to i64
  br label %68

68:                                               ; preds = %.lr.ph, %68
  %indvars.iv61 = phi i64 [ %63, %.lr.ph ], [ %indvars.iv.next62, %68 ]
  %indvars.iv = phi i64 [ 1, %.lr.ph ], [ %indvars.iv.next, %68 ]
  %69 = getelementptr inbounds nuw [11 x double], ptr %5, i64 0, i64 %indvars.iv
  %70 = load double, ptr %69, align 8, !tbaa !16
  %71 = fmul nsz double %70, %66
  %72 = getelementptr inbounds nuw double, ptr %7, i64 %indvars.iv
  %73 = load double, ptr %72, align 8, !tbaa !16
  %74 = getelementptr i8, ptr %72, i64 -16
  %75 = load double, ptr %74, align 8, !tbaa !16
  %76 = fsub nsz double %73, %75
  %77 = fmul nsz double %67, %76
  %78 = fadd nsz double %71, %77
  %79 = fmul nsz double %78, 5.000000e-01
  %80 = fptrunc nsz double %79 to float
  %gep = getelementptr float, ptr %invariant.gep70, i64 %indvars.iv
  store float %80, ptr %gep, align 4, !tbaa !12
  %81 = fsub nsz double %71, %77
  %82 = fmul nsz double %81, 5.000000e-01
  %83 = fptrunc nsz double %82 to float
  %gep58 = getelementptr float, ptr %invariant.gep70, i64 %indvars.iv61
  store float %83, ptr %gep58, align 4, !tbaa !12
  %indvars.iv.next = add nuw nsw i64 %indvars.iv, 1
  %indvars.iv.next62 = add nsw i64 %indvars.iv61, -1
  %exitcond.not = icmp eq i64 %indvars.iv.next, %wide.trip.count
  br i1 %exitcond.not, label %._crit_edge, label %68, !llvm.loop !21

._crit_edge:                                      ; preds = %68, %lsp2polyf.exit55.._crit_edge_crit_edge
  %.pre-phi68 = phi double [ %.pre67, %lsp2polyf.exit55.._crit_edge_crit_edge ], [ %66, %68 ]
  %.pre-phi = phi i64 [ %61, %lsp2polyf.exit55.._crit_edge_crit_edge ], [ %63, %68 ]
  %84 = phi double [ %.pre, %lsp2polyf.exit55.._crit_edge_crit_edge ], [ %65, %68 ]
  %85 = sext i32 %6 to i64
  %86 = getelementptr inbounds [11 x double], ptr %5, i64 0, i64 %85
  %87 = load double, ptr %86, align 8, !tbaa !16
  %88 = fmul nsz double %.pre-phi68, %87
  %89 = fmul nsz double %88, 5.000000e-01
  %90 = fptrunc nsz double %89 to float
  %91 = getelementptr float, ptr %1, i64 %85
  %92 = getelementptr i8, ptr %91, i64 -4
  store float %90, ptr %92, align 4, !tbaa !12
  %93 = fptrunc nsz double %84 to float
  %94 = getelementptr inbounds float, ptr %1, i64 %.pre-phi
  store float %93, ptr %94, align 4, !tbaa !12
  call void @llvm.lifetime.end.p0(i64 88, ptr nonnull %5) #4
  call void @llvm.lifetime.end.p0(i64 88, ptr nonnull %4) #4
  ret void
}